target datalayout = "e-m:e-p270:32:32-p271:32:32-p272:64:64-i64:64-i128:128-f80:128-n8:16:32:64-S128"
target triple = "x86_64-pc-linux-gnu"

%"class.OopStorage::ActiveArray" = type <{ i64, i64, i32, [4 x i8] }>

; Function Attrs: mustprogress nounwind uwtable
define linkonce_odr hidden noundef i64 @_Z10align_downImmTnNSt9enable_ifIXcvbsr3std11is_integralIT_EE5valueEiE4typeELi0EES1_S1_T0_(i64 noundef %0, i64 noundef %1) #1 comdat {
  %3 = alloca i64, align 8
  %4 = alloca i64, align 8
  %5 = alloca i64, align 8
  store i64 %0, ptr %3, align 8
  store i64 %1, ptr %4, align 8
  %6 = load i64, ptr %3, align 8
  %7 = load i64, ptr %4, align 8
  %8 = call noundef i64 @_ZL14alignment_maskImTnNSt9enable_ifIXcvbsr3std11is_integralIT_EE5valueEiE4typeELi0EES1_S1_(i64 noundef %7)
  %9 = xor i64 %8, -1
  %10 = and i64 %6, %9
  store i64 %10, ptr %5, align 8
  %11 = load i64, ptr %5, align 8
  ret i64 %11
}

; Function Attrs: mustprogress nounwind uwtable
define linkonce_odr hidden noundef i64 @_Z12checked_castImmET_T0_(i64 noundef %0) #1 comdat {
  %2 = alloca i64, align 8
  %3 = alloca i64, align 8
  store i64 %0, ptr %2, align 8
  %4 = load i64, ptr %2, align 8
  store i64 %4, ptr %3, align 8
  %5 = load i64, ptr %3, align 8
  ret i64 %5
}

; Function Attrs: mustprogress nounwind uwtable
define internal noundef i64 @_ZL14alignment_maskImTnNSt9enable_ifIXcvbsr3std11is_integralIT_EE5valueEiE4typeELi0EES1_S1_(i64 noundef %0) #1 {
  %2 = alloca i64, align 8
  store i64 %0, ptr %2, align 8
  %3 = load i64, ptr %2, align 8
  %4 = sub i64 %3, 1
  ret i64 %4
}

; Function Attrs: mustprogress nounwind uwtable
define linkonce_odr hidden noundef i64 @_Z8align_upImmTnNSt9enable_ifIXcvbsr3std11is_integralIT_EE5valueEiE4typeELi0EES1_S1_T0_(i64 noundef %0, i64 noundef %1) #1 comdat {
  %3 = alloca i64, align 8
  %4 = alloca i64, align 8
  %5 = alloca i64, align 8
  store i64 %0, ptr %3, align 8
  store i64 %1, ptr %4, align 8
  %6 = load i64, ptr %3, align 8
  %7 = load i64, ptr %4, align 8
  %8 = call noundef i64 @_ZL14alignment_maskImTnNSt9enable_ifIXcvbsr3std11is_integralIT_EE5valueEiE4typeELi0EES1_S1_(i64 noundef %7)
  %9 = add i64 %6, %8
  %10 = call noundef i64 @_Z12checked_castImmET_T0_(i64 noundef %9)
  store i64 %10, ptr %5, align 8
  %11 = load i64, ptr %5, align 8
  %12 = load i64, ptr %4, align 8
  %13 = call noundef i64 @_Z10align_downImmTnNSt9enable_ifIXcvbsr3std11is_integralIT_EE5valueEiE4typeELi0EES1_S1_T0_(i64 noundef %11, i64 noundef %12)
  ret i64 %13
}

; Function Attrs: mustprogress nounwind uwtable
define linkonce_odr hidden noundef i64 @_ZN10OopStorage11ActiveArray13blocks_offsetEv() #1 comdat align 2 {
  %1 = call noundef i64 @_Z8align_upImmTnNSt9enable_ifIXcvbsr3std11is_integralIT_EE5valueEiE4typeELi0EES1_S1_T0_(i64 noundef 24, i64 noundef 8)
  ret i64 %1
}

; Function Attrs: mustprogress nounwind uwtable
define linkonce_odr hidden noundef ptr @_ZNK10OopStorage11ActiveArray8base_ptrEv(ptr noundef nonnull align 8 dereferenceable(20) %0) #1 comdat align 2 {
  %2 = alloca ptr, align 8
  %3 = alloca ptr, align 8
  store ptr %0, ptr %2, align 8
  %4 = load ptr, ptr %2, align 8
  %5 = call noundef i64 @_ZN10OopStorage11ActiveArray13blocks_offsetEv()
  %6 = getelementptr inbounds i8, ptr %4, i64 %5
  store ptr %6, ptr %3, align 8
  %7 = load ptr, ptr %3, align 8
  ret ptr %7
}

; Function Attrs: mustprogress nounwind uwtable
define linkonce_odr hidden noundef ptr @_ZN10OopStorage11ActiveArray9block_ptrEm(ptr noundef nonnull align 8 dereferenceable(20) %0, i64 noundef %1) #1 comdat align 2 {
  %3 = alloca ptr, align 8
  %4 = alloca i64, align 8
  store ptr %0, ptr %3, align 8
  store i64 %1, ptr %4, align 8
  %5 = load ptr, ptr %3, align 8
  %6 = call noundef ptr @_ZNK10OopStorage11ActiveArray8base_ptrEv(ptr noundef nonnull align 8 dereferenceable(20) %5)
  %7 = load i64, ptr %4, align 8
  %8 = getelementptr inbounds ptr, ptr %6, i64 %7
  ret ptr %8
}

; Function Attrs: mustprogress nounwind uwtable
define linkonce_odr hidden noundef ptr @_ZNK10OopStorage11ActiveArray9block_ptrEm(ptr noundef nonnull align 8 dereferenceable(20) %0, i64 noundef %1) #1 comdat align 2 {
  %3 = alloca ptr, align 8
  %4 = alloca i64, align 8
  store ptr %0, ptr %3, align 8
  store i64 %1, ptr %4, align 8
  %5 = load ptr, ptr %3, align 8
  %6 = call noundef ptr @_ZNK10OopStorage11ActiveArray8base_ptrEv(ptr noundef nonnull align 8 dereferenceable(20) %5)
  %7 = load i64, ptr %4, align 8
  %8 = getelementptr inbounds ptr, ptr %6, i64 %7
  ret ptr %8
}

; Function Attrs: mustprogress nounwind uwtable
define hidden void @_ZN10OopStorage11ActiveArray9copy_fromEPKS0_(ptr noundef nonnull align 8 dereferenceable(20) %0, ptr noundef %1) #1 align 2 {
  %3 = alloca ptr, align 8
  %4 = alloca ptr, align 8
  %5 = alloca i64, align 8
  %6 = alloca ptr, align 8
  %7 = alloca ptr, align 8
  %8 = alloca i64, align 8
  %9 = alloca ptr, align 8
  store ptr %0, ptr %3, align 8
  store ptr %1, ptr %4, align 8
  %10 = load ptr, ptr %3, align 8
  %11 = load ptr, ptr %4, align 8
  %12 = getelementptr inbounds %"class.OopStorage::ActiveArray", ptr %11, i32 0, i32 1
  %13 = load volatile i64, ptr %12, align 8
  store i64 %13, ptr %5, align 8
  %14 = load ptr, ptr %4, align 8
  %15 = call noundef ptr @_ZNK10OopStorage11ActiveArray9block_ptrEm(ptr noundef nonnull align 8 dereferenceable(20) %14, i64 noundef 0)
  store ptr %15, ptr %6, align 8
  %16 = call noundef ptr @_ZN10OopStorage11ActiveArray9block_ptrEm(ptr noundef nonnull align 8 dereferenceable(20) %10, i64 noundef 0)
  store ptr %16, ptr %7, align 8
  store i64 0, ptr %8, align 8
  br label %17

17:                                               ; preds = %28, %2
  %18 = load i64, ptr %8, align 8
  %19 = load i64, ptr %5, align 8
  %20 = icmp ult i64 %18, %19
  br i1 %20, label %21, label %31

21:                                               ; preds = %17
  %22 = load ptr, ptr %6, align 8
  %23 = getelementptr inbounds ptr, ptr %22, i32 1
  store ptr %23, ptr %6, align 8
  %24 = load ptr, ptr %22, align 8
  store ptr %24, ptr %9, align 8
  %25 = load ptr, ptr %9, align 8
  %26 = load ptr, ptr %7, align 8
  %27 = getelementptr inbounds ptr, ptr %26, i32 1
  store ptr %27, ptr %7, align 8
  store ptr %25, ptr %26, align 8
  br label %28

28:                                               ; preds = %21
  %29 = load i64, ptr %8, align 8
  %30 = add i64 %29, 1
  store i64 %30, ptr %8, align 8
  br label %17, !llvm.loop !6

31:                                               ; preds = %17
  %32 = load i64, ptr %5, align 8
  %33 = getelementptr inbounds %"class.OopStorage::ActiveArray", ptr %10, i32 0, i32 1
  store volatile i64 %32, ptr %33, align 8
  ret void
}