; Function Attrs: mustprogress nofree norecurse nounwind uwtable
define hidden void @_ZN10OopStorage11ActiveArray9copy_fromEPKS0_(ptr noundef nonnull align 8 dereferenceable(20) %0, ptr noundef %1) local_unnamed_addr #9 align 2 {
  %3 = getelementptr inbounds i8, ptr %1, i64 8
  %4 = load volatile i64, ptr %3, align 8
  %.not = icmp eq i64 %4, 0
  br i1 %.not, label %._crit_edge, label %.lr.ph.preheader

.lr.ph.preheader:                                 ; preds = %2
  %5 = getelementptr i8, ptr %0, i64 24
  %6 = getelementptr i8, ptr %1, i64 24
  br label %.lr.ph

.lr.ph:                                           ; preds = %.lr.ph.preheader, %.lr.ph
  %.014 = phi ptr [ %7, %.lr.ph ], [ %6, %.lr.ph.preheader ]
  %.0913 = phi i64 [ %10, %.lr.ph ], [ 0, %.lr.ph.preheader ]
  %.01012 = phi ptr [ %9, %.lr.ph ], [ %5, %.lr.ph.preheader ]
  %7 = getelementptr inbounds i8, ptr %.014, i64 8
  %8 = load ptr, ptr %.014, align 8
  %9 = getelementptr inbounds i8, ptr %.01012, i64 8
  store ptr %8, ptr %.01012, align 8
  %10 = add nuw i64 %.0913, 1
  %exitcond.not = icmp eq i64 %10, %4
  br i1 %exitcond.not, label %._crit_edge, label %.lr.ph, !llvm.loop !8

._crit_edge:                                      ; preds = %.lr.ph, %2
  %11 = getelementptr inbounds i8, ptr %0, i64 8
  store volatile i64 %4, ptr %11, align 8
  ret void
}